target datalayout = "e-m:e-p270:32:32-p271:32:32-p272:64:64-i64:64-i128:128-f80:128-n8:16:32:64-S128"
target triple = "x86_64-pc-linux-gnu"

%"class.icu_77::TimeZoneTransition" = type { %"class.icu_77::UObject", double, ptr, ptr }
%"class.icu_77::UObject" = type { ptr }

; Function Attrs: mustprogress uwtable
define void @_ZN6icu_7718TimeZoneTransition5setToERKNS_12TimeZoneRuleE(ptr noundef nonnull align 8 dereferenceable(32) %0, ptr noundef nonnull align 8 dereferenceable(80) %1) #1 align 2 {
  %3 = alloca ptr, align 8
  %4 = alloca ptr, align 8
  store ptr %0, ptr %3, align 8, !tbaa !3
  store ptr %1, ptr %4, align 8, !tbaa !10
  %5 = load ptr, ptr %3, align 8
  %6 = getelementptr inbounds nuw %"class.icu_77::TimeZoneTransition", ptr %5, i32 0, i32 3
  %7 = load ptr, ptr %6, align 8, !tbaa !18
  %8 = icmp eq ptr %7, null
  br i1 %8, label %13, label %9

9:                                                ; preds = %2
  %10 = load ptr, ptr %7, align 8, !tbaa !12
  %11 = getelementptr inbounds ptr, ptr %10, i64 1
  %12 = load ptr, ptr %11, align 8
  call void %12(ptr noundef nonnull align 8 dereferenceable(80) %7) #6
  br label %13

13:                                               ; preds = %9, %2
  %14 = load ptr, ptr %4, align 8, !tbaa !10
  %15 = load ptr, ptr %14, align 8, !tbaa !12
  %16 = getelementptr inbounds ptr, ptr %15, i64 3
  %17 = load ptr, ptr %16, align 8
  %18 = call noundef ptr %17(ptr noundef nonnull align 8 dereferenceable(80) %14)
  %19 = getelementptr inbounds nuw %"class.icu_77::TimeZoneTransition", ptr %5, i32 0, i32 3
  store ptr %18, ptr %19, align 8, !tbaa !18
  ret void
}

; Function Attrs: mustprogress uwtable
define void @_ZN6icu_7718TimeZoneTransition7setFromERKNS_12TimeZoneRuleE(ptr noundef nonnull align 8 dereferenceable(32) %0, ptr noundef nonnull align 8 dereferenceable(80) %1) #1 align 2 {
  %3 = alloca ptr, align 8
  %4 = alloca ptr, align 8
  store ptr %0, ptr %3, align 8, !tbaa !3
  store ptr %1, ptr %4, align 8, !tbaa !10
  %5 = load ptr, ptr %3, align 8
  %6 = getelementptr inbounds nuw %"class.icu_77::TimeZoneTransition", ptr %5, i32 0, i32 2
  %7 = load ptr, ptr %6, align 8, !tbaa !17
  %8 = icmp eq ptr %7, null
  br i1 %8, label %13, label %9

9:                                                ; preds = %2
  %10 = load ptr, ptr %7, align 8, !tbaa !12
  %11 = getelementptr inbounds ptr, ptr %10, i64 1
  %12 = load ptr, ptr %11, align 8
  call void %12(ptr noundef nonnull align 8 dereferenceable(80) %7) #6
  br label %13

13:                                               ; preds = %9, %2
  %14 = load ptr, ptr %4, align 8, !tbaa !10
  %15 = load ptr, ptr %14, align 8, !tbaa !12
  %16 = getelementptr inbounds ptr, ptr %15, i64 3
  %17 = load ptr, ptr %16, align 8
  %18 = call noundef ptr %17(ptr noundef nonnull align 8 dereferenceable(80) %14)
  %19 = getelementptr inbounds nuw %"class.icu_77::TimeZoneTransition", ptr %5, i32 0, i32 2
  store ptr %18, ptr %19, align 8, !tbaa !17
  ret void
}

; Function Attrs: mustprogress uwtable
define noundef nonnull align 8 dereferenceable(32) ptr @_ZN6icu_7718TimeZoneTransitionaSERKS0_(ptr noundef nonnull align 8 dereferenceable(32) %0, ptr noundef nonnull align 8 dereferenceable(32) %1) #1 align 2 {
  %3 = alloca ptr, align 8
  %4 = alloca ptr, align 8
  store ptr %0, ptr %3, align 8, !tbaa !3
  store ptr %1, ptr %4, align 8, !tbaa !3
  %5 = load ptr, ptr %3, align 8
  %6 = load ptr, ptr %4, align 8, !tbaa !3
  %7 = icmp ne ptr %5, %6
  br i1 %7, label %8, label %19

8:                                                ; preds = %2
  %9 = load ptr, ptr %4, align 8, !tbaa !3
  %10 = getelementptr inbounds nuw %"class.icu_77::TimeZoneTransition", ptr %9, i32 0, i32 1
  %11 = load double, ptr %10, align 8, !tbaa !14
  %12 = getelementptr inbounds nuw %"class.icu_77::TimeZoneTransition", ptr %5, i32 0, i32 1
  store double %11, ptr %12, align 8, !tbaa !14
  %13 = load ptr, ptr %4, align 8, !tbaa !3
  %14 = getelementptr inbounds nuw %"class.icu_77::TimeZoneTransition", ptr %13, i32 0, i32 2
  %15 = load ptr, ptr %14, align 8, !tbaa !17
  call void @_ZN6icu_7718TimeZoneTransition7setFromERKNS_12TimeZoneRuleE(ptr noundef nonnull align 8 dereferenceable(32) %5, ptr noundef nonnull align 8 dereferenceable(80) %15)
  %16 = load ptr, ptr %4, align 8, !tbaa !3
  %17 = getelementptr inbounds nuw %"class.icu_77::TimeZoneTransition", ptr %16, i32 0, i32 3
  %18 = load ptr, ptr %17, align 8, !tbaa !18
  call void @_ZN6icu_7718TimeZoneTransition5setToERKNS_12TimeZoneRuleE(ptr noundef nonnull align 8 dereferenceable(32) %5, ptr noundef nonnull align 8 dereferenceable(80) %18)
  br label %19

19:                                               ; preds = %8, %2
  ret ptr %5
}