; Function Attrs: mustprogress uwtable
define noundef nonnull align 8 dereferenceable(32) ptr @_ZN6icu_7718TimeZoneTransitionaSERKS0_(ptr noundef nonnull returned align 8 dereferenceable(32) %0, ptr noundef nonnull readonly align 8 dereferenceable(32) %1) local_unnamed_addr #1 align 2 {
  %.not = icmp eq ptr %0, %1
  br i1 %.not, label %33, label %3

3:                                                ; preds = %2
  %4 = getelementptr inbounds nuw i8, ptr %1, i64 8
  %5 = load double, ptr %4, align 8, !tbaa !6
  %6 = getelementptr inbounds nuw i8, ptr %0, i64 8
  store double %5, ptr %6, align 8, !tbaa !6
  %7 = getelementptr inbounds nuw i8, ptr %1, i64 16
  %8 = load ptr, ptr %7, align 8, !tbaa !13
  %9 = getelementptr inbounds nuw i8, ptr %0, i64 16
  %10 = load ptr, ptr %9, align 8, !tbaa !13
  %11 = icmp eq ptr %10, null
  br i1 %11, label %_ZN6icu_7718TimeZoneTransition7setFromERKNS_12TimeZoneRuleE.exit, label %12

12:                                               ; preds = %3
  %13 = load ptr, ptr %10, align 8, !tbaa !3
  %14 = getelementptr inbounds nuw i8, ptr %13, i64 8
  %15 = load ptr, ptr %14, align 8
  tail call void %15(ptr noundef nonnull align 8 dereferenceable(80) %10) #8
  br label %_ZN6icu_7718TimeZoneTransition7setFromERKNS_12TimeZoneRuleE.exit

_ZN6icu_7718TimeZoneTransition7setFromERKNS_12TimeZoneRuleE.exit: ; preds = %3, %12
  %16 = load ptr, ptr %8, align 8, !tbaa !3
  %17 = getelementptr inbounds nuw i8, ptr %16, i64 24
  %18 = load ptr, ptr %17, align 8
  %19 = tail call noundef ptr %18(ptr noundef nonnull align 8 dereferenceable(80) %8)
  store ptr %19, ptr %9, align 8, !tbaa !13
  %20 = getelementptr inbounds nuw i8, ptr %1, i64 24
  %21 = load ptr, ptr %20, align 8, !tbaa !14
  %22 = getelementptr inbounds nuw i8, ptr %0, i64 24
  %23 = load ptr, ptr %22, align 8, !tbaa !14
  %24 = icmp eq ptr %23, null
  br i1 %24, label %_ZN6icu_7718TimeZoneTransition5setToERKNS_12TimeZoneRuleE.exit, label %25

25:                                               ; preds = %_ZN6icu_7718TimeZoneTransition7setFromERKNS_12TimeZoneRuleE.exit
  %26 = load ptr, ptr %23, align 8, !tbaa !3
  %27 = getelementptr inbounds nuw i8, ptr %26, i64 8
  %28 = load ptr, ptr %27, align 8
  tail call void %28(ptr noundef nonnull align 8 dereferenceable(80) %23) #8
  br label %_ZN6icu_7718TimeZoneTransition5setToERKNS_12TimeZoneRuleE.exit

_ZN6icu_7718TimeZoneTransition5setToERKNS_12TimeZoneRuleE.exit: ; preds = %_ZN6icu_7718TimeZoneTransition7setFromERKNS_12TimeZoneRuleE.exit, %25
  %29 = load ptr, ptr %21, align 8, !tbaa !3
  %30 = getelementptr inbounds nuw i8, ptr %29, i64 24
  %31 = load ptr, ptr %30, align 8
  %32 = tail call noundef ptr %31(ptr noundef nonnull align 8 dereferenceable(80) %21)
  store ptr %32, ptr %22, align 8, !tbaa !14
  br label %33

33:                                               ; preds = %_ZN6icu_7718TimeZoneTransition5setToERKNS_12TimeZoneRuleE.exit, %2
  ret ptr %0
}